target datalayout = "e-m:e-p270:32:32-p271:32:32-p272:64:64-i64:64-i128:128-f80:128-n8:16:32:64-S128"
target triple = "x86_64-pc-linux-gnu"

%struct.wtapng_block_s = type { i32, i32, ptr, ptr, ptr }
%struct.section_info_t = type { i32, i16, i16, ptr, i64, i32, i64, i64 }

; Function Attrs: nounwind uwtable
define void @pcapng_process_uint32_option(ptr noundef %0, ptr noundef %1, i32 noundef %2, i16 noundef zeroext %3, i16 noundef zeroext %4, ptr noundef %5) #0 {
  %7 = alloca ptr, align 8
  %8 = alloca ptr, align 8
  %9 = alloca i32, align 4
  %10 = alloca i16, align 2
  %11 = alloca i16, align 2
  %12 = alloca ptr, align 8
  %13 = alloca i32, align 4
  store ptr %0, ptr %7, align 8
  store ptr %1, ptr %8, align 8
  store i32 %2, ptr %9, align 4
  store i16 %3, ptr %10, align 2
  store i16 %4, ptr %11, align 2
  store ptr %5, ptr %12, align 8
  %14 = load i16, ptr %11, align 2
  %15 = zext i16 %14 to i32
  %16 = icmp eq i32 %15, 4
  br i1 %16, label %17, label %69

17:                                               ; preds = %6
  %18 = load ptr, ptr %12, align 8
  call void @llvm.memcpy.p0.p0.i64(ptr align 4 %13, ptr align 1 %18, i64 4, i1 false)
  %19 = load i32, ptr %9, align 4
  switch i32 %19, label %60 [
    i32 0, label %20
    i32 1, label %42
    i32 2, label %58
  ]

20:                                               ; preds = %17
  %21 = load ptr, ptr %8, align 8
  %22 = getelementptr inbounds %struct.section_info_t, ptr %21, i32 0, i32 0
  %23 = load i32, ptr %22, align 8
  %24 = icmp ne i32 %23, 0
  br i1 %24, label %25, label %41

25:                                               ; preds = %20
  %26 = load i32, ptr %13, align 4
  %27 = and i32 %26, 255
  %28 = shl i32 %27, 24
  %29 = load i32, ptr %13, align 4
  %30 = and i32 %29, 65280
  %31 = shl i32 %30, 8
  %32 = or i32 %28, %31
  %33 = load i32, ptr %13, align 4
  %34 = and i32 %33, 16711680
  %35 = lshr i32 %34, 8
  %36 = or i32 %32, %35
  %37 = load i32, ptr %13, align 4
  %38 = and i32 %37, -16777216
  %39 = lshr i32 %38, 24
  %40 = or i32 %36, %39
  store i32 %40, ptr %13, align 4
  br label %41

41:                                               ; preds = %25, %20
  br label %61

42:                                               ; preds = %17
  %43 = load i32, ptr %13, align 4
  %44 = and i32 %43, 255
  %45 = shl i32 %44, 24
  %46 = load i32, ptr %13, align 4
  %47 = and i32 %46, 65280
  %48 = shl i32 %47, 8
  %49 = or i32 %45, %48
  %50 = load i32, ptr %13, align 4
  %51 = and i32 %50, 16711680
  %52 = lshr i32 %51, 8
  %53 = or i32 %49, %52
  %54 = load i32, ptr %13, align 4
  %55 = and i32 %54, -16777216
  %56 = lshr i32 %55, 24
  %57 = or i32 %53, %56
  store i32 %57, ptr %13, align 4
  br label %61

58:                                               ; preds = %17
  %59 = load i32, ptr %13, align 4
  store i32 %59, ptr %13, align 4
  br label %61

60:                                               ; preds = %17
  br label %69

61:                                               ; preds = %58, %42, %41
  %62 = load ptr, ptr %7, align 8
  %63 = getelementptr inbounds %struct.wtapng_block_s, ptr %62, i32 0, i32 2
  %64 = load ptr, ptr %63, align 8
  %65 = load i16, ptr %10, align 2
  %66 = zext i16 %65 to i32
  %67 = load i32, ptr %13, align 4
  %68 = call i32 @wtap_block_add_uint32_option(ptr noundef %64, i32 noundef %66, i32 noundef %67)
  br label %69

69:                                               ; preds = %61, %60, %6
  ret void
}