; Function Attrs: nounwind uwtable
define void @pcapng_process_uint32_option(ptr noundef readonly captures(none) %0, ptr noundef readonly captures(none) %1, i32 noundef %2, i16 noundef zeroext %3, i16 noundef zeroext %4, ptr noundef readonly captures(none) %5) local_unnamed_addr #0 {
  %7 = icmp eq i16 %4, 4
  br i1 %7, label %8, label %19

8:                                                ; preds = %6
  %.0.copyload = load i32, ptr %5, align 1
  switch i32 %2, label %19 [
    i32 0, label %9
    i32 1, label %12
    i32 2, label %14
  ]

9:                                                ; preds = %8
  %10 = load i32, ptr %1, align 8
  %.not = icmp eq i32 %10, 0
  %11 = tail call i32 @llvm.bswap.i32(i32 %.0.copyload)
  %spec.select = select i1 %.not, i32 %.0.copyload, i32 %11
  br label %14

12:                                               ; preds = %8
  %13 = tail call i32 @llvm.bswap.i32(i32 %.0.copyload)
  br label %14

14:                                               ; preds = %9, %8, %12
  %.0 = phi i32 [ %13, %12 ], [ %spec.select, %9 ], [ %.0.copyload, %8 ]
  %15 = getelementptr inbounds nuw i8, ptr %0, i64 8
  %16 = load ptr, ptr %15, align 8
  %17 = zext i16 %3 to i32
  %18 = tail call i32 @wtap_block_add_uint32_option(ptr noundef %16, i32 noundef %17, i32 noundef %.0) #16
  br label %19

19:                                               ; preds = %8, %14, %6
  ret void
}